00001  0000             ; 10 SYS (2304)
00002  0001             
00003  0001             *=$0801
00004  0801             
00005  0801  0E 08 0A              BYTE    $0E, $08, $0A, $00, $9E, $20, $28,  $32, $33, $30, $34, $29, $00, $00, $00
00006  0810             
00007  0810             BLACK=$00
00008  0810             GREY2=$0C
00009  0810             VIOLET=$04 
00010  0810             ; PROGRAM ENTRANCE
00011  0810             *=$0900
00012  0900             
00013  0900  20 0D 09              JSR SET_VIC_BANK_3
00014  0903  20 1E 09              JSR REDIRECT_CHARSET_AND_SCREEN_RAM
00015  0906  20 24 09              JSR ENABLE_MULTICOLOR_CHAR_MODE
00016  0909  20 2D 09              JSR SET_SHARED_SCREEN_COLORS
00017  090C  60                    RTS
00018  090D             
00019  090D             
00020  090D             SET_VIC_BANK_3 
00021  090D                        ; SET LOW 2 BITS OF 56578
00022  090D  AD 02 DD              LDA $DD02
00023  0910  09 03                 ORA #3
00024  0912  8D 02 DD              STA $DD02
00025  0915             
00026  0915                        ; UNSET LOW 2 BITS OF 56576 (VIC BANK 3)
00027  0915  AD 00 DD              LDA $DD00
00028  0918  25 FC                 AND $FC
00029  091A  8D 00 DD              STA $DD00
00030  091D  60                    RTS
00031  091E             
00032  091E             REDIRECT_CHARSET_AND_SCREEN_RAM 
00033  091E  A5 11                 LDA $11
00034  0920  8D 18 D0              STA $D018
00035  0923  60                    RTS
00036  0924             
00037  0924             ; LDA WILL BE CORRUPTED
00038  0924             ENABLE_MULTICOLOR_CHAR_MODE 
00039  0924  AD 16 D0              LDA $D016
00040  0927  09 10                 ORA #16
00041  0929  8D 16 D0              STA $D016
00042  092C  60                    RTS
00043  092D             
00044  092D             ; LDA WILL BE CORRUPTED
00045  092D             SET_SHARED_SCREEN_COLORS 
00046  092D                        ; SET THE 00 COLOR
00047  092D  A9 00                 LDA #BLACK
00048  092F  8D 21 D0              STA $D021
00049  0932             
00050  0932                        ; SET THE 01 COLOR
00051  0932  A9 0C                 LDA #GREY2
00052  0934  8D 22 D0              STA $D022
00053  0937             
00054  0937                        ; SET THE 10 COLOR
00055  0937  A9 04                 LDA #VIOLET
00056  0939  8D 23 D0              STA $D023
00057  093C             
00058  093C  60                    RTS
00059  093D             
00060  093D             ; SCREEN 1 -  SCREEN DATA; VIC BANK 3
00061  093D             *=$C400
00062  C400             _SCREEN_DATA 
00063  C400  20 20 20              BYTE    $20,$20,$20,$20,$20,$20,$20,$20,$20,$20,$20,$20,$20,$20,$20,$20,$20,$20,$20,$20,$20,$20,$20,$10
00064  C418  20 10 20              BYTE    $20,$10,$20,$20,$20,$20,$20,$20,$20,$20,$20,$20,$20,$20,$20,$20,$20,$20,$20,$20,$20,$20,$20,$20,$20,$20,$20,$20,$20,$20,$20,$20,$20,$20,$20,$20,$20,$20,$10
00065  C43F  20 20 20              BYTE    $20,$20,$20,$20,$20,$20,$20,$20,$20,$20,$20,$20,$20,$20,$20,$10,$20,$20,$20,$20,$20,$20,$20,$20,$20,$20,$20,$20,$10
00066  C45C  20 20 20              BYTE    $20,$20,$20,$20,$20,$20,$10
00067  C463  20 20 20              BYTE    $20,$20,$20,$20,$20,$20,$20,$20,$20,$20,$20,$20,$20,$20,$20,$20,$20,$20,$20,$20,$20,$20,$20,$20,$20,$20,$20,$20,$20,$20,$20,$20,$10
00068  C484  20 20 20              BYTE    $20,$20,$20,$20,$20,$20,$20,$20,$20,$20,$20,$20,$20,$20,$20,$20,$20,$20,$20,$20,$20,$20,$20,$20,$20,$20,$20,$20,$20,$20,$20,$20,$20,$20,$20,$20,$20,$20,$10
00069  C4AB  20 20 20              BYTE    $20,$20,$20,$20,$20,$20,$20,$20,$20,$20,$20,$20,$20,$20,$20,$20,$20,$20,$20,$20,$20,$20,$20,$20,$20,$20,$20,$10
00070  C4C7  20 20 20              BYTE    $20,$20,$20,$20,$20,$20,$20,$20,$20,$20,$20,$20,$20,$20,$20,$20,$20,$20,$20,$10
00071  C4DB  20 20 20              BYTE    $20,$20,$20,$20,$20,$20,$20,$20,$20,$20,$20,$20,$10
00072  C4E8  20 20 20              BYTE    $20,$20,$20,$10
00073  C4EC  20 20 20              BYTE    $20,$20,$20,$20,$20,$20,$20,$20,$20,$20,$10,$20,$20,$20,$20,$20,$20,$20,$20,$20,$20,$20,$20,$20,$20,$20,$20,$20,$20,$20,$20,$20,$20,$20,$20,$20,$20,$03,$01
00074  C513  20 20 10              BYTE    $20,$20,$10,$20,$20,$20,$20,$20,$20,$20,$20,$20,$20,$20,$20,$20,$10,$20,$20,$20,$20,$20,$20,$20,$20,$20,$20,$20,$20,$20,$20,$20,$20,$20,$20,$20,$20,$03,$01
00075  C53A  20 20 20              BYTE    $20,$20,$20,$20,$20,$20,$20,$20,$20,$20,$20,$20,$20,$20,$20,$20,$20,$20,$20,$20,$20,$20,$20,$20,$20,$20,$20,$20,$20,$20,$20,$20,$20,$10,$20,$20,$20,$03,$01
00076  C561  00 00 02              BYTE    $00,$00,$02,$20,$20,$20,$20,$20,$20,$20,$20,$20,$20,$20,$20,$20,$20,$20,$20,$20,$20,$20,$20,$20,$20,$20,$20,$20,$20,$20,$20,$20,$20,$20,$20,$20,$20,$03,$01
00077  C588  00 00 02              BYTE    $00,$00,$02,$20,$20,$20,$20,$20,$20,$20,$20,$20,$20,$20,$20,$20,$20,$20,$20,$20,$20,$20,$20,$20,$20,$20,$20,$20,$20,$20,$20,$20,$20,$20,$20,$20,$20,$03,$01
00078  C5AF  00 00 02              BYTE    $00,$00,$02,$20,$20,$20,$20,$20,$20,$20,$20,$20,$20,$20,$20,$20,$20,$20,$20,$20,$20,$20,$20,$20,$20,$20,$20,$20,$20,$20,$20,$20,$20,$20,$20,$20,$20,$03,$01
00079  C5D6  00 00 02              BYTE    $00,$00,$02,$20,$20,$20,$20,$20,$20,$20,$20,$20,$20,$20,$20,$20,$20,$20,$20,$20,$20,$20,$20,$20,$20,$20,$20,$20,$20,$20,$20,$20,$20,$20,$20,$20,$20,$03,$01
00080  C5FD  00 00 02              BYTE    $00,$00,$02,$20,$20,$20,$20,$20,$20,$20,$20,$20,$20,$20,$20,$20,$20,$20,$20,$20,$20,$20,$20,$20,$20,$20,$20,$20,$20,$20,$20,$20,$20,$20,$20,$20,$20,$03,$01
00081  C624  00 00 02              BYTE    $00,$00,$02,$20,$20,$20,$20,$20,$20,$20,$20,$20,$20,$20,$20,$20,$20,$20,$20,$20,$20,$20,$20,$20,$20,$20,$20,$20,$20,$20,$20,$20,$20,$20,$20,$20,$20,$03,$01
00082  C64B  00 00 02              BYTE    $00,$00,$02,$20,$20,$20,$20,$20,$20,$20,$20,$20,$20,$20,$20,$20,$20,$20,$20,$20,$20,$20,$20,$20,$20,$20,$20,$20,$20,$20,$20,$20,$20,$20,$20,$20,$20,$03,$01
00083  C672  00 02 00              BYTE    $00,$02,$00,$00,$00,$00,$00,$02,$00,$00,$01,$01,$00,$00,$02,$03,$00,$00,$00,$00,$03,$01,$03,$03,$00,$00,$01,$00,$00,$00,$00,$00,$01,$01,$00,$00,$00,$00,$00
00084  C699  01 01 00              BYTE    $01,$01,$00,$02,$00,$03,$00,$00,$00,$0C,$0D,$01,$01,$0C,$0D,$01,$01,$0C,$0D,$01,$01,$01,$00,$00,$01,$00,$0C,$0D,$01,$01,$0C,$0D,$01,$01,$0C,$0D,$01,$00,$00
00085  C6C0  00 01 01              BYTE    $00,$01,$01,$01,$01,$01,$01,$01,$01,$0E,$0F,$01,$01,$0E,$0F,$00,$00,$0E,$0F,$00,$01,$00,$00,$01,$01,$00,$0E,$0F,$01,$01,$0E,$0F,$00,$00,$0E,$0F,$01,$00,$00
00086  C6E7  00 02 02              BYTE    $00,$02,$02,$00,$01,$01,$03,$00,$00,$00,$00,$00,$00,$00,$00,$03,$00,$00,$00,$01,$02,$01,$01,$01,$00,$01,$01,$00,$00,$03,$01,$00,$02,$00,$00,$00,$00,$02,$00
00087  C70E  20 20 20              BYTE    $20,$20,$20,$20,$20,$20,$20,$20,$20,$20,$20,$20,$20,$20,$20,$20,$20,$20,$20,$20,$20,$20,$20,$20,$20,$20,$20,$20,$20,$20,$20,$20,$20,$20,$20,$20,$20,$20,$20,$20,$20
00088  C737             
00089  C737             ; SCREEN 1 -  COLOUR DATA
00090  C737             *=$D800
00091  D800             _COLOUR_DATA 
00092  D800  00 00 00              BYTE    $00,$00,$00,$00,$00,$00,$00,$00,$0D,$0D,$0D,$0D,$0D,$0D,$0D,$0D,$0D,$0D,$0D,$00,$00,$00,$0A,$0D
00093  D818  00 0D 00              BYTE    $00,$0D,$00,$00,$00,$00,$00,$0D,$0E,$0E,$0E,$0E,$0E,$0E,$0E,$0E,$0E,$0E,$0A,$00,$00,$00,$0D,$0D,$0D,$0D,$0D,$0D,$0D,$0D,$0D,$0D,$0A,$00,$00,$00,$00,$00,$0D
00094  D83F  00 00 0D              BYTE    $00,$00,$0D,$00,$00,$00,$00,$0D,$0D,$0D,$0D,$0D,$0D,$0D,$0D,$0D,$0D,$0A,$0A,$00,$00,$00,$0D,$0E,$0E,$0E,$0E,$0D,$0D
00095  D85C  00 00 00              BYTE    $00,$00,$00,$00,$00,$00,$0D
00096  D863  00 0A 00              BYTE    $00,$0A,$00,$00,$00,$00,$00,$0D,$0D,$0D,$0D,$0D,$0D,$0D,$0D,$0D,$0D,$0A,$0A,$00,$00,$00,$0D,$0E,$0E,$0E,$0E,$0E,$0E,$0E,$0E,$0A,$0D
00097  D884  00 00 00              BYTE    $00,$00,$00,$00,$00,$00,$00,$0D,$0E,$0E,$0E,$0E,$0E,$0E,$0E,$0E,$0E,$0E,$0A,$00,$00,$00,$0D,$0D,$0D,$0D,$0D,$0D,$0D,$0D,$0D,$0D,$0A,$00,$00,$00,$00,$00,$0D
00098  D8AB  00 00 00              BYTE    $00,$00,$00,$00,$00,$00,$00,$00,$0D,$0D,$0D,$0D,$0D,$0D,$0D,$0D,$0D,$0D,$0D,$00,$00,$00,$0A,$0D,$0E,$0E,$0E,$0D
00099  D8C7  00 00 00              BYTE    $00,$00,$00,$00,$00,$00,$00,$00,$00,$0D,$0E,$0E,$0E,$0E,$0E,$0E,$0E,$0E,$0E,$0D
00100  D8DB  00 00 00              BYTE    $00,$00,$00,$00,$00,$00,$00,$00,$00,$00,$00,$00,$0D
00101  D8E8  0A 0A 0A              BYTE    $0A,$0A,$0A,$0D
00102  D8EC  0A 0A 0A              BYTE    $0A,$0A,$0A,$0A,$0A,$0A,$0A,$00,$00,$00,$0D,$00,$00,$00,$00,$0A,$00,$00,$00,$00,$00,$00,$00,$00,$00,$00,$00,$00,$0A,$0A,$0A,$0A,$0A,$0A,$0A,$09,$09,$09,$09
00103  D913  0A 0A 0D              BYTE    $0A,$0A,$0D,$0A,$0A,$0A,$0A,$0A,$00,$00,$00,$00,$00,$00,$00,$0A,$0D,$00,$00,$00,$00,$00,$00,$00,$00,$00,$00,$00,$0A,$0A,$0A,$0A,$0A,$0A,$00,$09,$09,$09,$09
00104  D93A  0A 0A 0A              BYTE    $0A,$0A,$0A,$0A,$0A,$0A,$0A,$0A,$0A,$0A,$00,$00,$00,$00,$00,$0A,$00,$00,$00,$00,$00,$00,$00,$00,$00,$00,$00,$00,$0A,$0A,$0A,$09,$09,$0D,$09,$09,$09,$09,$09
00105  D961  09 09 09              BYTE    $09,$09,$09,$09,$09,$09,$09,$09,$09,$09,$09,$09,$09,$09,$09,$09,$0A,$0A,$0A,$0A,$0A,$0A,$0D,$0A,$0A,$0A,$0A,$0A,$09,$09,$09,$09,$09,$09,$09,$09,$09,$09,$09
00106  D988  09 09 09              BYTE    $09,$09,$09,$09,$09,$09,$09,$09,$09,$09,$09,$09,$09,$09,$09,$09,$09,$09,$09,$09,$09,$09,$09,$09,$09,$09,$09,$09,$09,$09,$09,$09,$09,$09,$09,$09,$09,$09,$09
00107  D9AF  09 09 09              BYTE    $09,$09,$09,$00,$00,$00,$09,$0D,$09,$09,$09,$09,$09,$09,$09,$09,$09,$09,$09,$09,$09,$09,$09,$09,$09,$09,$09,$09,$09,$09,$09,$09,$09,$09,$09,$09,$00,$09,$09
00108  D9D6  09 09 09              BYTE    $09,$09,$09,$00,$00,$00,$00,$00,$09,$09,$09,$09,$09,$09,$09,$09,$09,$09,$0D,$09,$09,$09,$09,$09,$09,$09,$09,$09,$09,$09,$09,$09,$09,$09,$09,$09,$00,$09,$09
00109  D9FD  09 09 09              BYTE    $09,$09,$09,$00,$00,$00,$00,$00,$00,$0A,$09,$09,$09,$09,$09,$09,$09,$09,$09,$09,$09,$09,$09,$09,$09,$09,$09,$09,$09,$09,$09,$09,$09,$09,$09,$09,$00,$09,$09
00110  DA24  09 09 09              BYTE    $09,$09,$09,$00,$00,$00,$00,$00,$00,$0A,$0A,$09,$09,$09,$09,$09,$09,$09,$09,$09,$09,$09,$09,$09,$09,$09,$0D,$09,$09,$09,$09,$09,$09,$09,$09,$00,$00,$09,$09
00111  DA4B  09 09 09              BYTE    $09,$09,$09,$00,$00,$00,$00,$00,$0D,$0A,$09,$0A,$09,$09,$09,$09,$09,$09,$09,$09,$09,$09,$09,$09,$09,$09,$09,$09,$09,$09,$09,$09,$09,$09,$09,$00,$00,$09,$09
00112  DA72  09 09 09              BYTE    $09,$09,$09,$09,$09,$09,$09,$09,$09,$09,$09,$09,$09,$09,$09,$09,$09,$09,$09,$09,$09,$09,$09,$09,$09,$09,$09,$09,$09,$09,$09,$09,$09,$09,$09,$09,$09,$09,$09
00113  DA99  09 09 09              BYTE    $09,$09,$09,$09,$09,$09,$09,$09,$09,$09,$09,$09,$09,$09,$09,$09,$09,$09,$09,$09,$09,$09,$09,$09,$09,$09,$09,$09,$09,$09,$09,$09,$09,$09,$09,$09,$09,$09,$09
00114  DAC0  09 09 09              BYTE    $09,$09,$09,$09,$09,$09,$09,$09,$09,$09,$09,$09,$09,$09,$09,$09,$09,$09,$09,$09,$09,$09,$09,$09,$09,$09,$09,$09,$09,$09,$09,$09,$09,$09,$09,$09,$09,$09,$09
00115  DAE7  09 09 09              BYTE    $09,$09,$09,$09,$09,$09,$09,$09,$09,$09,$09,$09,$09,$09,$09,$09,$09,$09,$09,$09,$09,$09,$09,$09,$09,$09,$09,$09,$09,$09,$09,$09,$09,$09,$09,$09,$09,$09,$09
00116  DB0E  09 09 09              BYTE    $09,$09,$09,$09,$09,$09,$09,$09,$09,$09,$09,$09,$09,$09,$09,$09,$09,$09,$09,$09,$09,$09,$09,$09,$09,$09,$09,$09,$09,$09,$09,$09,$09,$09,$09,$09,$09,$09,$09,$09,$00
00117  DB37             
00118  DB37             
00119  DB37             
00120  DB37             
00121  DB37             
00122  DB37             *=$C800
00123  C800             CHARDATA
00124  C800  AA FF 5F              BYTE    $AA,$FF,$5F,$FF,$FF,$F7,$FF,$AA ; CHARACTER 0
00125  C808  AA FF FF              BYTE    $AA,$FF,$FF,$DF,$FF,$FD,$7F,$AA ; CHARACTER 1
00126  C810  AA FE FE              BYTE    $AA,$FE,$FE,$7E,$FE,$FE,$F6,$AA ; CHARACTER 2
00127  C818  AA BF BF              BYTE    $AA,$BF,$BF,$BD,$BF,$BF,$9F,$AA ; CHARACTER 3
00128  C820  96 96 96              BYTE    $96,$96,$96,$96,$96,$96,$96,$96 ; CHARACTER 4
00129  C828  FF FF FF              BYTE    $FF,$FF,$FF,$FF,$FF,$FF,$FF,$FF ; CHARACTER 5
00130  C830  03 03 0F              BYTE    $03,$03,$0F,$0F,$3F,$3F,$FF,$FF ; CHARACTER 6
00131  C838  0F 0F 0F              BYTE    $0F,$0F,$0F,$0F,$0F,$0F,$0F,$0F ; CHARACTER 7
00132  C840  03 03 03              BYTE    $03,$03,$03,$03,$0F,$0F,$0F,$0F ; CHARACTER 8
00133  C848  0F 0F 0F              BYTE    $0F,$0F,$0F,$0F,$03,$03,$03,$03 ; CHARACTER 9
00134  C850  FF FF 3F              BYTE    $FF,$FF,$3F,$3F,$0F,$0F,$03,$03 ; CHARACTER 10
00135  C858  3F 3F 3F              BYTE    $3F,$3F,$3F,$3F,$3F,$3F,$3F,$3F ; CHARACTER 11
00136  C860  F0 F0 C0              BYTE    $F0,$F0,$C0,$C0,$C0,$00,$00,$00 ; CHARACTER 12
00137  C868  0F 0F 03              BYTE    $0F,$0F,$03,$03,$03,$00,$00,$00 ; CHARACTER 13
00138  C870  00 00 00              BYTE    $00,$00,$00,$C0,$C0,$C0,$F0,$F0 ; CHARACTER 14
00139  C878  00 00 00              BYTE    $00,$00,$00,$03,$03,$03,$0F,$0F ; CHARACTER 15
00140  C880  00 10 74              BYTE    $00,$10,$74,$10,$00,$00,$00,$00 ; CHARACTER 16
00141  C888             

******* 7 Label(s) *******
_colour_data = $D800 
_screen_data = $C400 
CHARDATA = $C800 
ENABLE_MULTICOLOR_CHAR_MODE = $0924 
REDIRECT_CHARSET_AND_SCREEN_RAM = $091E 
SET_SHARED_SCREEN_COLORS = $092D 
SET_VIC_BANK_3 = $090D 

******* 7 Unused label(s) *******
_colour_data
_screen_data
CHARDATA
ENABLE_MULTICOLOR_CHAR_MODE
REDIRECT_CHARSET_AND_SCREEN_RAM
SET_SHARED_SCREEN_COLORS
SET_VIC_BANK_3

******* 4 Variable(s) *******
BLACK  = $0000
GREY2  = $000C
tgt_c64  = $0001
VIOLET  = $0004
******* 1 Unused variables(s) *******
tgt_c64

