00001  0000             
00002  0001             
00003  0001             ; 10 SYS (2080)
00004  0001             
00005  0001             BLACK=$00
00006  0001             GREY2=$0C
00007  0001             VIOLET=$04 
00008  0001             SCREEN_RAM=$0400 
00009  0001             SCREEN_DATA=$9C00 
00010  0001             CHAR_DATA_MULTIPLIER=($3800/$0800)<<1 
00011  0001             
00012  0001             SD_BLOCK_1 = $9C00
00013  0001             SD_BLOCK_2 = $9C00 + 256
00014  0001             SD_BLOCK_3 = $9C00 + 512
00015  0001             SD_BLOCK_4 = $9C00 + 768
00016  0001             
00017  0001             ; VARIABLES IN THE ZERO PAGE
00018  0001             SRC=$00C0
00019  0001             SRC_HI=SRC+1 
00020  0001             DEST=SRC_HI+1 
00021  0001             DEST_HI=DEST+1 
00022  0001             
00023  0001             ; /1 : SRC ADDRESS
00024  0001             DEFM       SET_SRC
00025  0001                        LDY #0
00026  0001                        LDA #>/1
00027  0001                        STA SRC_HI
00028  0001                        LDA #</1
00029  0001                        STA SRC
00030  0001                        ENDM
00031  0001             
00032  0001             ; /1 : DEST ADDRESS
00033  0001             DEFM       SET_DEST
00034  0001                        LDY #0
00035  0001                        LDA #>/1
00036  0001                        STA DEST_HI
00037  0001                        LDA #</1
00038  0001                        STA DEST
00039  0001                        ENDM
00040  0001             
00041  0001             ; 10 SYS (2049)
00042  0001             
00043  0001             ; 10 SYS (2064)
00044  0001             
00045  0001             *=$0801
00046  0801             
00047  0801  0E 08 0A              BYTE    $0E, $08, $0A, $00, $9E, $20, $28,  $32, $30, $36, $34, $29, $00, $00, $00
00048  0810             
00049  0810             
00050  0810             
00051  0810             ; PROGRAM ENTRANCE
00052  0810             *=$0810
00053  0810             
00054  0810  20 23 08              JSR COPY_SCREEN_DATA_TO_SCREEN_RAM
00055  0813  20 8A 08              JSR ENABLE_MULTICOLOR_CHAR_MODE
00056  0816  20 93 08              JSR SET_SHARED_SCREEN_COLORS
00057  0819  20 1D 08              JSR REDIRECT_TO_CUSTOM_CHARSET
00058  081C  60                    RTS
00059  081D                        
00060  081D             REDIRECT_TO_CUSTOM_CHARSET 
00061  081D                        ;LDA $D018
00062  081D                        ;AND $F1
00063  081D                        ;ORA #CHAR_DATA_MULTIPLIER
00064  081D                        ;ORA $0E
00065  081D  A9 1C                 LDA #28
00066  081F  8D 18 D0              STA $D018
00067  0822  60                    RTS
00068  0823                        
00069  0823             
00070  0823             ; COPIES _SCREEN_DATA TO THE THE SCREEN RAM AT $0400
00071  0823             ; EVEN THOUGH SCREEN DATA IS ONLY 1000 BYTES, IT WILL COPY 1024!!!
00072  0823             
00073  0823             COPY_SCREEN_DATA_TO_SCREEN_RAM 
00074  0823                        ; FIRST 256-BYTE BLOCK IS $0400-$04FF, FROM
00075  0823             
00076  0823             
00077  0823  A0 00                 LDY #0
00078  0825  A9 04                 LDA #>$0400
00079  0827  85 C3                 STA DEST_HI
00080  0829  A9 00                 LDA #<$0400
00081  082B  85 C2                 STA DEST
00082  082D             
00083  082D             
00084  082D  A0 00                 LDY #0
00085  082F  A9 9C                 LDA #>SD_BLOCK_1
00086  0831  85 C1                 STA SRC_HI
00087  0833  A9 00                 LDA #<SD_BLOCK_1
00088  0835  85 C0                 STA SRC
00089  0837  20 80 08              JSR MOVE_256_BYTES
00090  083A                        
00091  083A                        ; SECOND 256-BYTE BLOCK IS $0500-$05FF
00092  083A             
00093  083A             
00094  083A  A0 00                 LDY #0
00095  083C  A9 05                 LDA #>$0500
00096  083E  85 C3                 STA DEST_HI
00097  0840  A9 00                 LDA #<$0500
00098  0842  85 C2                 STA DEST
00099  0844             
00100  0844             
00101  0844  A0 00                 LDY #0
00102  0846  A9 9D                 LDA #>SD_BLOCK_2
00103  0848  85 C1                 STA SRC_HI
00104  084A  A9 00                 LDA #<SD_BLOCK_2
00105  084C  85 C0                 STA SRC
00106  084E  20 80 08              JSR MOVE_256_BYTES
00107  0851             
00108  0851                        ; THIRD 256-BYTE BLOCK IS $0600-$06FF
00109  0851             
00110  0851             
00111  0851  A0 00                 LDY #0
00112  0853  A9 06                 LDA #>$0600
00113  0855  85 C3                 STA DEST_HI
00114  0857  A9 00                 LDA #<$0600
00115  0859  85 C2                 STA DEST
00116  085B             
00117  085B             
00118  085B  A0 00                 LDY #0
00119  085D  A9 9E                 LDA #>SD_BLOCK_3
00120  085F  85 C1                 STA SRC_HI
00121  0861  A9 00                 LDA #<SD_BLOCK_3
00122  0863  85 C0                 STA SRC
00123  0865  20 80 08              JSR MOVE_256_BYTES
00124  0868             
00125  0868                        ; FOURTH 256-BYTE BLOCK IS $0700-$07FF
00126  0868             
00127  0868             
00128  0868  A0 00                 LDY #0
00129  086A  A9 07                 LDA #>$0700
00130  086C  85 C3                 STA DEST_HI
00131  086E  A9 00                 LDA #<$0700
00132  0870  85 C2                 STA DEST
00133  0872             
00134  0872             
00135  0872  A0 00                 LDY #0
00136  0874  A9 9F                 LDA #>SD_BLOCK_4
00137  0876  85 C1                 STA SRC_HI
00138  0878  A9 00                 LDA #<SD_BLOCK_4
00139  087A  85 C0                 STA SRC
00140  087C  20 80 08              JSR MOVE_256_BYTES
00141  087F             
00142  087F  60                    RTS
00143  0880             
00144  0880             ; COPIES 256 TYES FROM SRC TO DEST
00145  0880             ; SRC: FIRST (LOW) BYTE OF ADDRESS CONTAINING THE SOURCE ADDRESS
00146  0880             ; DEST: FIRST (LOW) BYTE OF ADDRESS CONTAINING THE DESTINATION ADDRESS
00147  0880             ; CORRUPTS REGISTERS A AND Y
00148  0880             MOVE_256_BYTES 
00149  0880  A0 00                 LDY #0
00150  0882  B1 C0      @LOOP      LDA (SRC),Y
00151  0884  91 C2                 STA (DEST),Y
00152  0886  C8                    INY ; NOTE THAT THIS WILL ROLLOVER TO ZERO AT "Y=256"
00153  0887  D0 F9                 BNE @LOOP
00154  0889  60                    RTS
00155  088A             
00156  088A             
00157  088A             
00158  088A             ; LDA WILL BE CORRUPTED
00159  088A             ENABLE_MULTICOLOR_CHAR_MODE 
00160  088A  AD 16 D0              LDA $D016
00161  088D  09 10                 ORA #16
00162  088F  8D 16 D0              STA $D016
00163  0892  60                    RTS
00164  0893             
00165  0893             ; LDA WILL BE CORRUPTED
00166  0893             SET_SHARED_SCREEN_COLORS 
00167  0893                        ; SET THE 00 COLOR
00168  0893  A9 00                 LDA #BLACK
00169  0895  8D 21 D0              STA $D021
00170  0898             
00171  0898                        ; SET THE 01 COLOR
00172  0898  A9 0C                 LDA #GREY2
00173  089A  8D 22 D0              STA $D022
00174  089D             
00175  089D                        ; SET THE 10 COLOR
00176  089D  A9 04                 LDA #VIOLET
00177  089F  8D 23 D0              STA $D023
00178  08A2             
00179  08A2  60                    RTS
00180  08A3             
00181  08A3             *=$3000
00182  3000             CHARDATA
00183  3000  AA FF 5F              BYTE    $AA,$FF,$5F,$FF,$FF,$F7,$FF,$AA ; CHARACTER 0
00184  3008  AA FF FF              BYTE    $AA,$FF,$FF,$DF,$FF,$FD,$7F,$AA ; CHARACTER 1
00185  3010  AA FE FE              BYTE    $AA,$FE,$FE,$7E,$FE,$FE,$F6,$AA ; CHARACTER 2
00186  3018  AA BF BF              BYTE    $AA,$BF,$BF,$BD,$BF,$BF,$9F,$AA ; CHARACTER 3
00187  3020  96 96 96              BYTE    $96,$96,$96,$96,$96,$96,$96,$96 ; CHARACTER 4
00188  3028  FF FF FF              BYTE    $FF,$FF,$FF,$FF,$FF,$FF,$FF,$FF ; CHARACTER 5
00189  3030  03 03 0F              BYTE    $03,$03,$0F,$0F,$3F,$3F,$FF,$FF ; CHARACTER 6
00190  3038  0F 0F 0F              BYTE    $0F,$0F,$0F,$0F,$0F,$0F,$0F,$0F ; CHARACTER 7
00191  3040  03 03 03              BYTE    $03,$03,$03,$03,$0F,$0F,$0F,$0F ; CHARACTER 8
00192  3048  0F 0F 0F              BYTE    $0F,$0F,$0F,$0F,$03,$03,$03,$03 ; CHARACTER 9
00193  3050  FF FF 3F              BYTE    $FF,$FF,$3F,$3F,$0F,$0F,$03,$03 ; CHARACTER 10
00194  3058  3F 3F 3F              BYTE    $3F,$3F,$3F,$3F,$3F,$3F,$3F,$3F ; CHARACTER 11
00195  3060  F0 F0 C0              BYTE    $F0,$F0,$C0,$C0,$C0,$00,$00,$00 ; CHARACTER 12
00196  3068  0F 0F 03              BYTE    $0F,$0F,$03,$03,$03,$00,$00,$00 ; CHARACTER 13
00197  3070  00 00 00              BYTE    $00,$00,$00,$C0,$C0,$C0,$F0,$F0 ; CHARACTER 14
00198  3078  00 00 00              BYTE    $00,$00,$00,$03,$03,$03,$0F,$0F ; CHARACTER 15
00199  3080  00 10 74              BYTE    $00,$10,$74,$10,$00,$00,$00,$00 ; CHARACTER 16
00200  3088             
00201  3088             ; SCREEN 1 -  SCREEN DATA; VIC BANK 3
00202  3088             *=$9C00
00203  9C00             ; SCREEN 1 -  SCREEN DATA
00204  9C00             _SCREEN_DATA 
00205  9C00  20 20 20              BYTE    $20,$20,$20,$20,$20,$20,$20,$20,$20,$20,$20,$20,$20,$20,$20,$20,$20,$20,$20,$20,$20,$20,$20,$10,$20,$20,$20,$20,$20,$20,$20,$20,$20,$20,$20,$20,$20,$20,$20,$20
00206  9C28  20 10 20              BYTE    $20,$10,$20,$20,$20,$20,$20,$20,$20,$20,$20,$20,$20,$20,$20,$20,$20,$20,$20,$20,$20,$20,$20,$20,$20,$20,$20,$20,$20,$20,$20,$20,$20,$20,$20,$20,$20,$20,$10,$20
00207  9C50  20 20 20              BYTE    $20,$20,$20,$20,$20,$20,$20,$20,$20,$20,$20,$20,$20,$20,$20,$10,$20,$20,$20,$20,$20,$20,$20,$20,$20,$20,$20,$20,$10,$20,$20,$20,$20,$20,$20,$20,$20,$20,$20,$20
00208  9C78  20 20 20              BYTE    $20,$20,$20,$20,$20,$20,$10,$20,$20,$20,$20,$20,$20,$20,$20,$20,$20,$20,$20,$20,$20,$20,$20,$20,$20,$20,$20,$20,$20,$20,$20,$20,$20,$20,$20,$20,$20,$20,$20,$20
00209  9CA0  20 20 20              BYTE    $20,$20,$20,$20,$20,$20,$20,$20,$20,$20,$20,$20,$20,$20,$20,$20,$20,$20,$20,$20,$20,$20,$20,$20,$20,$20,$20,$20,$20,$20,$20,$20,$10,$20,$20,$20,$20,$20,$20,$20
00210  9CC8  20 20 20              BYTE    $20,$20,$20,$20,$20,$20,$20,$20,$20,$20,$20,$20,$20,$20,$20,$20,$20,$20,$20,$20,$20,$20,$20,$20,$20,$20,$20,$20,$20,$20,$20,$20,$20,$20,$20,$20,$20,$20,$10,$20
00211  9CF0  20 20 20              BYTE    $20,$20,$20,$20,$20,$20,$20,$20,$20,$20,$20,$20,$20,$20,$20,$20,$20,$20,$20,$20,$20,$20,$20,$20,$20,$20,$20,$10,$20,$20,$20,$20,$20,$20,$20,$20,$20,$20,$20,$20
00212  9D18  20 20 20              BYTE    $20,$20,$20,$20,$20,$20,$20,$20,$20,$20,$20,$20,$20,$20,$20,$20,$20,$20,$20,$10,$20,$20,$20,$20,$20,$20,$20,$20,$20,$20,$20,$20,$20,$20,$20,$20,$20,$20,$20,$20
00213  9D40  20 20 20              BYTE    $20,$20,$20,$20,$20,$20,$20,$20,$20,$20,$20,$20,$10,$20,$20,$20,$20,$20,$20,$20,$20,$20,$20,$20,$20,$20,$20,$20,$20,$20,$20,$20,$20,$20,$20,$20,$20,$20,$20,$20
00214  9D68  20 20 20              BYTE    $20,$20,$20,$10,$20,$20,$20,$20,$20,$20,$20,$20,$20,$20,$20,$20,$20,$20,$20,$20,$20,$20,$20,$20,$20,$20,$20,$20,$20,$20,$20,$20,$20,$20,$20,$20,$20,$20,$20,$20
00215  9D90  20 20 20              BYTE    $20,$20,$20,$20,$20,$20,$20,$20,$20,$20,$10,$20,$20,$20,$20,$20,$20,$20,$20,$20,$20,$20,$20,$20,$20,$20,$20,$20,$20,$20,$20,$20,$20,$20,$20,$20,$20,$03,$01,$20
00216  9DB8  20 20 10              BYTE    $20,$20,$10,$20,$20,$20,$20,$20,$20,$20,$20,$20,$20,$20,$20,$20,$10,$20,$20,$20,$20,$20,$20,$20,$20,$20,$20,$20,$20,$20,$20,$20,$20,$20,$20,$20,$20,$03,$01,$20
00217  9DE0  20 20 20              BYTE    $20,$20,$20,$20,$20,$20,$20,$20,$20,$20,$20,$20,$20,$20,$20,$20,$20,$20,$20,$20,$20,$20,$20,$20,$20,$20,$20,$20,$20,$20,$20,$20,$20,$10,$20,$20,$20,$03,$01,$20
00218  9E08  00 00 02              BYTE    $00,$00,$02,$20,$20,$20,$20,$20,$20,$20,$20,$20,$20,$20,$20,$20,$20,$20,$20,$20,$20,$20,$20,$20,$20,$20,$20,$20,$20,$20,$20,$20,$20,$20,$20,$20,$20,$03,$01,$20
00219  9E30  00 00 02              BYTE    $00,$00,$02,$20,$20,$20,$20,$20,$20,$20,$20,$20,$20,$20,$20,$20,$20,$20,$20,$20,$20,$20,$20,$20,$20,$20,$20,$20,$20,$20,$20,$20,$20,$20,$20,$20,$20,$03,$01,$20
00220  9E58  00 00 02              BYTE    $00,$00,$02,$20,$20,$20,$20,$20,$20,$20,$20,$20,$20,$20,$20,$20,$20,$20,$20,$20,$20,$20,$20,$20,$20,$20,$20,$20,$20,$20,$20,$20,$20,$20,$20,$20,$20,$03,$01,$20
00221  9E80  00 00 02              BYTE    $00,$00,$02,$20,$20,$20,$20,$20,$20,$20,$20,$20,$20,$20,$20,$20,$20,$20,$20,$20,$20,$20,$20,$20,$20,$20,$20,$20,$20,$20,$20,$20,$20,$20,$20,$20,$20,$03,$01,$20
00222  9EA8  00 00 02              BYTE    $00,$00,$02,$20,$20,$20,$20,$20,$20,$20,$20,$20,$20,$20,$20,$20,$20,$20,$20,$20,$20,$20,$20,$20,$20,$20,$20,$20,$20,$20,$20,$20,$20,$20,$20,$20,$20,$03,$01,$20
00223  9ED0  00 00 02              BYTE    $00,$00,$02,$20,$20,$20,$20,$20,$20,$20,$20,$20,$20,$20,$20,$20,$20,$20,$20,$20,$20,$20,$20,$20,$20,$20,$20,$20,$20,$20,$20,$20,$20,$20,$20,$20,$20,$03,$01,$20
00224  9EF8  00 00 02              BYTE    $00,$00,$02,$20,$20,$20,$20,$20,$20,$20,$20,$20,$20,$20,$20,$20,$20,$20,$20,$20,$20,$20,$20,$20,$20,$20,$20,$20,$20,$20,$20,$20,$20,$20,$20,$20,$20,$03,$01,$20
00225  9F20  00 02 00              BYTE    $00,$02,$00,$00,$00,$00,$00,$02,$00,$00,$01,$01,$00,$00,$02,$03,$00,$00,$00,$00,$03,$01,$03,$03,$00,$00,$01,$00,$00,$00,$00,$00,$01,$01,$00,$00,$00,$00,$00,$20
00226  9F48  01 01 00              BYTE    $01,$01,$00,$02,$00,$03,$00,$00,$00,$0C,$0D,$01,$01,$0C,$0D,$01,$01,$0C,$0D,$01,$01,$01,$00,$00,$01,$00,$0C,$0D,$01,$01,$0C,$0D,$01,$01,$0C,$0D,$01,$00,$00,$20
00227  9F70  00 01 01              BYTE    $00,$01,$01,$01,$01,$01,$01,$01,$01,$0E,$0F,$01,$01,$0E,$0F,$00,$00,$0E,$0F,$00,$01,$00,$00,$01,$01,$00,$0E,$0F,$01,$01,$0E,$0F,$00,$00,$0E,$0F,$01,$00,$00,$20
00228  9F98  00 02 02              BYTE    $00,$02,$02,$00,$01,$01,$03,$00,$00,$00,$00,$00,$00,$00,$00,$03,$00,$00,$00,$01,$02,$01,$01,$01,$00,$01,$01,$00,$00,$03,$01,$00,$02,$00,$00,$00,$00,$02,$00,$20
00229  9FC0  20 20 20              BYTE    $20,$20,$20,$20,$20,$20,$20,$20,$20,$20,$20,$20,$20,$20,$20,$20,$20,$20,$20,$20,$20,$20,$20,$20,$20,$20,$20,$20,$20,$20,$20,$20,$20,$20,$20,$20,$20,$20,$20,$20
00230  9FE8             
00231  9FE8             *=$9800
00232  9800             ; SCREEN 1 -  COLOUR DATA
00233  9800             _COLOUR_DATA 
00234  9800  00 00 00              BYTE    $00,$00,$00,$00,$00,$00,$00,$00,$0D,$0D,$0D,$0D,$0D,$0D,$0D,$0D,$0D,$0D,$0D,$00,$00,$00,$0A,$0D,$0E,$0E,$0E,$0E,$0E,$0E,$0E,$0E,$0E,$00,$00,$00,$00,$00,$00,$00
00235  9828  00 0D 00              BYTE    $00,$0D,$00,$00,$00,$00,$00,$0D,$0E,$0E,$0E,$0E,$0E,$0E,$0E,$0E,$0E,$0E,$0A,$00,$00,$00,$0D,$0D,$0D,$0D,$0D,$0D,$0D,$0D,$0D,$0D,$0A,$00,$00,$00,$00,$00,$0D,$00
00236  9850  00 00 0D              BYTE    $00,$00,$0D,$00,$00,$00,$00,$0D,$0D,$0D,$0D,$0D,$0D,$0D,$0D,$0D,$0D,$0A,$0A,$00,$00,$00,$0D,$0E,$0E,$0E,$0E,$0D,$0D,$0E,$0E,$0A,$0A,$00,$00,$00,$00,$00,$00,$00
00237  9878  00 00 00              BYTE    $00,$00,$00,$00,$00,$00,$0D,$0D,$0E,$0E,$0E,$0E,$0E,$0E,$0E,$0E,$0E,$0A,$0A,$00,$00,$00,$0D,$0D,$0D,$0D,$0D,$0D,$0D,$0D,$0D,$0A,$0A,$00,$00,$00,$00,$00,$00,$00
00238  98A0  00 0A 00              BYTE    $00,$0A,$00,$00,$00,$00,$00,$0D,$0D,$0D,$0D,$0D,$0D,$0D,$0D,$0D,$0D,$0A,$0A,$00,$00,$00,$0D,$0E,$0E,$0E,$0E,$0E,$0E,$0E,$0E,$0A,$0D,$00,$00,$00,$00,$00,$00,$00
00239  98C8  00 00 00              BYTE    $00,$00,$00,$00,$00,$00,$00,$0D,$0E,$0E,$0E,$0E,$0E,$0E,$0E,$0E,$0E,$0E,$0A,$00,$00,$00,$0D,$0D,$0D,$0D,$0D,$0D,$0D,$0D,$0D,$0D,$0A,$00,$00,$00,$00,$00,$0D,$00
00240  98F0  00 00 00              BYTE    $00,$00,$00,$00,$00,$00,$00,$00,$0D,$0D,$0D,$0D,$0D,$0D,$0D,$0D,$0D,$0D,$0D,$00,$00,$00,$0A,$0D,$0E,$0E,$0E,$0D,$0E,$0E,$0E,$0E,$0E,$00,$00,$00,$00,$00,$00,$00
00241  9918  00 00 00              BYTE    $00,$00,$00,$00,$00,$00,$00,$00,$00,$0D,$0E,$0E,$0E,$0E,$0E,$0E,$0E,$0E,$0E,$0D,$00,$00,$00,$00,$0D,$0D,$0D,$0D,$0D,$0D,$0D,$0D,$0D,$0D,$0D,$00,$00,$00,$00,$00
00242  9940  00 00 00              BYTE    $00,$00,$00,$00,$00,$00,$00,$00,$00,$00,$00,$00,$0D,$00,$00,$0A,$00,$00,$00,$00,$00,$00,$00,$00,$00,$00,$00,$00,$0A,$00,$00,$00,$00,$00,$00,$00,$00,$00,$00,$00
00243  9968  0A 0A 0A              BYTE    $0A,$0A,$0A,$0D,$0A,$00,$00,$00,$00,$00,$00,$00,$00,$00,$00,$0A,$00,$00,$00,$00,$00,$00,$00,$00,$00,$00,$00,$00,$0A,$0A,$0A,$0A,$0A,$0A,$0A,$09,$09,$09,$09,$09
00244  9990  0A 0A 0A              BYTE    $0A,$0A,$0A,$0A,$0A,$0A,$0A,$00,$00,$00,$0D,$00,$00,$00,$00,$0A,$00,$00,$00,$00,$00,$00,$00,$00,$00,$00,$00,$00,$0A,$0A,$0A,$0A,$0A,$0A,$0A,$09,$09,$09,$09,$09
00245  99B8  0A 0A 0D              BYTE    $0A,$0A,$0D,$0A,$0A,$0A,$0A,$0A,$00,$00,$00,$00,$00,$00,$00,$0A,$0D,$00,$00,$00,$00,$00,$00,$00,$00,$00,$00,$00,$0A,$0A,$0A,$0A,$0A,$0A,$00,$09,$09,$09,$09,$09
00246  99E0  0A 0A 0A              BYTE    $0A,$0A,$0A,$0A,$0A,$0A,$0A,$0A,$0A,$0A,$00,$00,$00,$00,$00,$0A,$00,$00,$00,$00,$00,$00,$00,$00,$00,$00,$00,$00,$0A,$0A,$0A,$09,$09,$0D,$09,$09,$09,$09,$09,$09
00247  9A08  09 09 09              BYTE    $09,$09,$09,$09,$09,$09,$09,$09,$09,$09,$09,$09,$09,$09,$09,$09,$0A,$0A,$0A,$0A,$0A,$0A,$0D,$0A,$0A,$0A,$0A,$0A,$09,$09,$09,$09,$09,$09,$09,$09,$09,$09,$09,$09
00248  9A30  09 09 09              BYTE    $09,$09,$09,$09,$09,$09,$09,$09,$09,$09,$09,$09,$09,$09,$09,$09,$09,$09,$09,$09,$09,$09,$09,$09,$09,$09,$09,$09,$09,$09,$09,$09,$09,$09,$09,$09,$09,$09,$09,$09
00249  9A58  09 09 09              BYTE    $09,$09,$09,$00,$00,$00,$09,$0D,$09,$09,$09,$09,$09,$09,$09,$09,$09,$09,$09,$09,$09,$09,$09,$09,$09,$09,$09,$09,$09,$09,$09,$09,$09,$09,$09,$09,$00,$09,$09,$09
00250  9A80  09 09 09              BYTE    $09,$09,$09,$00,$00,$00,$00,$00,$09,$09,$09,$09,$09,$09,$09,$09,$09,$09,$0D,$09,$09,$09,$09,$09,$09,$09,$09,$09,$09,$09,$09,$09,$09,$09,$09,$09,$00,$09,$09,$09
00251  9AA8  09 09 09              BYTE    $09,$09,$09,$00,$00,$00,$00,$00,$00,$0A,$09,$09,$09,$09,$09,$09,$09,$09,$09,$09,$09,$09,$09,$09,$09,$09,$09,$09,$09,$09,$09,$09,$09,$09,$09,$09,$00,$09,$09,$09
00252  9AD0  09 09 09              BYTE    $09,$09,$09,$00,$00,$00,$00,$00,$00,$0A,$0A,$09,$09,$09,$09,$09,$09,$09,$09,$09,$09,$09,$09,$09,$09,$09,$0D,$09,$09,$09,$09,$09,$09,$09,$09,$00,$00,$09,$09,$09
00253  9AF8  09 09 09              BYTE    $09,$09,$09,$00,$00,$00,$00,$00,$0D,$0A,$09,$0A,$09,$09,$09,$09,$09,$09,$09,$09,$09,$09,$09,$09,$09,$09,$09,$09,$09,$09,$09,$09,$09,$09,$09,$00,$00,$09,$09,$09
00254  9B20  09 09 09              BYTE    $09,$09,$09,$09,$09,$09,$09,$09,$09,$09,$09,$09,$09,$09,$09,$09,$09,$09,$09,$09,$09,$09,$09,$09,$09,$09,$09,$09,$09,$09,$09,$09,$09,$09,$09,$09,$09,$09,$09,$09
00255  9B48  09 09 09              BYTE    $09,$09,$09,$09,$09,$09,$09,$09,$09,$09,$09,$09,$09,$09,$09,$09,$09,$09,$09,$09,$09,$09,$09,$09,$09,$09,$09,$09,$09,$09,$09,$09,$09,$09,$09,$09,$09,$09,$09,$09
00256  9B70  09 09 09              BYTE    $09,$09,$09,$09,$09,$09,$09,$09,$09,$09,$09,$09,$09,$09,$09,$09,$09,$09,$09,$09,$09,$09,$09,$09,$09,$09,$09,$09,$09,$09,$09,$09,$09,$09,$09,$09,$09,$09,$09,$09
00257  9B98  09 09 09              BYTE    $09,$09,$09,$09,$09,$09,$09,$09,$09,$09,$09,$09,$09,$09,$09,$09,$09,$09,$09,$09,$09,$09,$09,$09,$09,$09,$09,$09,$09,$09,$09,$09,$09,$09,$09,$09,$09,$09,$09,$09
00258  9BC0  09 09 09              BYTE    $09,$09,$09,$09,$09,$09,$09,$09,$09,$09,$09,$09,$09,$09,$09,$09,$09,$09,$09,$09,$09,$09,$09,$09,$09,$09,$09,$09,$09,$09,$09,$09,$09,$09,$09,$09,$09,$09,$09,$09
00259  9BE8             

******* 8 Label(s) *******
_colour_data = $9800 
_screen_data = $9C00 
CHARDATA = $3000 
COPY_SCREEN_DATA_TO_SCREEN_RAM = $0823 
ENABLE_MULTICOLOR_CHAR_MODE = $088A 
MOVE_256_BYTES = $0880 
REDIRECT_TO_CUSTOM_CHARSET = $081D 
SET_SHARED_SCREEN_COLORS = $0893 

******* 7 Unused label(s) *******
@loop
_colour_data
_screen_data
CHARDATA
COPY_SCREEN_DATA_TO_SCREEN_RAM
ENABLE_MULTICOLOR_CHAR_MODE
REDIRECT_TO_CUSTOM_CHARSET
SET_SHARED_SCREEN_COLORS

******* 15 Variable(s) *******
BLACK  = $0000
CHAR_DATA_MULTIPLIER  = $0000
DEST  = $00C2
DEST_HI  = $00C3
GREY2  = $000C
SCREEN_DATA  = $9C00
SCREEN_RAM  = $0400
sd_block_1  = $9C00
sd_block_2  = $9D00
sd_block_3  = $9E00
sd_block_4  = $9F00
SRC  = $00C0
SRC_HI  = $00C1
tgt_c64  = $0001
VIOLET  = $0004
******* 7 Unused variables(s) *******
CHAR_DATA_MULTIPLIER
DEST
DEST_HI
SCREEN_DATA
SCREEN_RAM
SRC
SRC_HI
tgt_c64

